target datalayout = "e-m:e-p270:32:32-p271:32:32-p272:64:64-i64:64-i128:128-f80:128-n8:16:32:64-S128"
target triple = "x86_64-pc-linux-gnu"

%struct.Vec_Int_t_ = type { i32, i32, ptr }
%struct.Abc_Ntk_t_ = type { i32, i32, ptr, ptr, ptr, ptr, ptr, ptr, ptr, ptr, ptr, ptr, ptr, [11 x i32], i32, i32, i32, i32, ptr, i32, ptr, ptr, i32, i32, i32, double, i32, %struct.Vec_Int_t_, ptr, ptr, ptr, ptr, ptr, float, i32, ptr, ptr, ptr, ptr, ptr, ptr, ptr, ptr, ptr, ptr, ptr, ptr, ptr, ptr, ptr, ptr, ptr, ptr, ptr, ptr, ptr, ptr }
%struct.Vec_Ptr_t_ = type { i32, i32, ptr }

@.str = private unnamed_addr constant [7 x i8] c".i %d\0A\00", align 1
@.str.1 = private unnamed_addr constant [7 x i8] c".o %d\0A\00", align 1
@.str.2 = private unnamed_addr constant [5 x i8] c".ilb\00", align 1
@.str.3 = private unnamed_addr constant [4 x i8] c" %s\00", align 1
@.str.4 = private unnamed_addr constant [2 x i8] c"\0A\00", align 1
@.str.5 = private unnamed_addr constant [4 x i8] c".ob\00", align 1
@.str.6 = private unnamed_addr constant [7 x i8] c".p %d\0A\00", align 1
@.str.8 = private unnamed_addr constant [4 x i8] c".e\0A\00", align 1
@.str.18 = private unnamed_addr constant [3 x i8] c"%c\00", align 1
@.str.19 = private unnamed_addr constant [2 x i8] c" \00", align 1

; Function Attrs: inlinehint nounwind uwtable
define internal i32 @Vec_PtrSize(ptr noundef %0) #2 {
  %2 = alloca ptr, align 8
  store ptr %0, ptr %2, align 8, !tbaa !58
  %3 = load ptr, ptr %2, align 8, !tbaa !58
  %4 = getelementptr inbounds nuw %struct.Vec_Ptr_t_, ptr %3, i32 0, i32 1
  %5 = load i32, ptr %4, align 4, !tbaa !73
  ret i32 %5
}

; Function Attrs: inlinehint nounwind uwtable
define internal ptr @Vec_PtrEntry(ptr noundef %0, i32 noundef %1) #2 {
  %3 = alloca ptr, align 8
  %4 = alloca i32, align 4
  store ptr %0, ptr %3, align 8, !tbaa !58
  store i32 %1, ptr %4, align 4, !tbaa !10
  %5 = load ptr, ptr %3, align 8, !tbaa !58
  %6 = getelementptr inbounds nuw %struct.Vec_Ptr_t_, ptr %5, i32 0, i32 2
  %7 = load ptr, ptr %6, align 8, !tbaa !47
  %8 = load i32, ptr %4, align 4, !tbaa !10
  %9 = sext i32 %8 to i64
  %10 = getelementptr inbounds ptr, ptr %7, i64 %9
  %11 = load ptr, ptr %10, align 8, !tbaa !50
  ret ptr %11
}

; Function Attrs: inlinehint nounwind uwtable
define internal ptr @Abc_NtkCo(ptr noundef %0, i32 noundef %1) #2 {
  %3 = alloca ptr, align 8
  %4 = alloca i32, align 4
  store ptr %0, ptr %3, align 8, !tbaa !8
  store i32 %1, ptr %4, align 4, !tbaa !10
  %5 = load ptr, ptr %3, align 8, !tbaa !8
  %6 = getelementptr inbounds nuw %struct.Abc_Ntk_t_, ptr %5, i32 0, i32 9
  %7 = load ptr, ptr %6, align 8, !tbaa !29
  %8 = load i32, ptr %4, align 4, !tbaa !10
  %9 = call ptr @Vec_PtrEntry(ptr noundef %7, i32 noundef %8)
  ret ptr %9
}

; Function Attrs: inlinehint nounwind uwtable
define internal ptr @Abc_NtkCi(ptr noundef %0, i32 noundef %1) #2 {
  %3 = alloca ptr, align 8
  %4 = alloca i32, align 4
  store ptr %0, ptr %3, align 8, !tbaa !8
  store i32 %1, ptr %4, align 4, !tbaa !10
  %5 = load ptr, ptr %3, align 8, !tbaa !8
  %6 = getelementptr inbounds nuw %struct.Abc_Ntk_t_, ptr %5, i32 0, i32 8
  %7 = load ptr, ptr %6, align 8, !tbaa !51
  %8 = load i32, ptr %4, align 4, !tbaa !10
  %9 = call ptr @Vec_PtrEntry(ptr noundef %7, i32 noundef %8)
  ret ptr %9
}

; Function Attrs: inlinehint nounwind uwtable
define internal i32 @Abc_NtkCoNum(ptr noundef %0) #2 {
  %2 = alloca ptr, align 8
  store ptr %0, ptr %2, align 8, !tbaa !8
  %3 = load ptr, ptr %2, align 8, !tbaa !8
  %4 = getelementptr inbounds nuw %struct.Abc_Ntk_t_, ptr %3, i32 0, i32 9
  %5 = load ptr, ptr %4, align 8, !tbaa !29
  %6 = call i32 @Vec_PtrSize(ptr noundef %5)
  ret i32 %6
}

; Function Attrs: inlinehint nounwind uwtable
define internal i32 @Abc_NtkCiNum(ptr noundef %0) #2 {
  %2 = alloca ptr, align 8
  store ptr %0, ptr %2, align 8, !tbaa !8
  %3 = load ptr, ptr %2, align 8, !tbaa !8
  %4 = getelementptr inbounds nuw %struct.Abc_Ntk_t_, ptr %3, i32 0, i32 8
  %5 = load ptr, ptr %4, align 8, !tbaa !51
  %6 = call i32 @Vec_PtrSize(ptr noundef %5)
  ret i32 %6
}

; Function Attrs: nounwind uwtable
define i32 @Io_WriteMoPlaOneIntMinterms(ptr noundef %0, ptr noundef %1, ptr noundef %2, ptr noundef %3) #0 {
  %5 = alloca ptr, align 8
  %6 = alloca ptr, align 8
  %7 = alloca ptr, align 8
  %8 = alloca ptr, align 8
  %9 = alloca [1000 x i32], align 16
  %10 = alloca ptr, align 8
  %11 = alloca i32, align 4
  %12 = alloca i32, align 4
  %13 = alloca i32, align 4
  %14 = alloca i32, align 4
  %15 = alloca i32, align 4
  store ptr %0, ptr %5, align 8, !tbaa !3
  store ptr %1, ptr %6, align 8, !tbaa !8
  store ptr %2, ptr %7, align 8, !tbaa !56
  store ptr %3, ptr %8, align 8, !tbaa !58
  call void @llvm.lifetime.start.p0(i64 4000, ptr %9) #9
  call void @llvm.lifetime.start.p0(i64 8, ptr %10) #9
  call void @llvm.lifetime.start.p0(i64 4, ptr %11) #9
  call void @llvm.lifetime.start.p0(i64 4, ptr %12) #9
  call void @llvm.lifetime.start.p0(i64 4, ptr %13) #9
  call void @llvm.lifetime.start.p0(i64 4, ptr %14) #9
  call void @llvm.lifetime.start.p0(i64 4, ptr %15) #9
  %16 = load ptr, ptr %6, align 8, !tbaa !8
  %17 = call i32 @Abc_NtkCiNum(ptr noundef %16)
  store i32 %17, ptr %14, align 4, !tbaa !10
  %18 = load ptr, ptr %6, align 8, !tbaa !8
  %19 = call i32 @Abc_NtkCoNum(ptr noundef %18)
  store i32 %19, ptr %15, align 4, !tbaa !10
  %20 = load i32, ptr %14, align 4, !tbaa !10
  %21 = shl i32 1, %20
  store i32 %21, ptr %13, align 4, !tbaa !10
  %22 = load ptr, ptr %5, align 8, !tbaa !3
  %23 = load i32, ptr %14, align 4, !tbaa !10
  %24 = call i32 (ptr, ptr, ...) @fprintf(ptr noundef %22, ptr noundef @.str, i32 noundef %23) #9
  %25 = load ptr, ptr %5, align 8, !tbaa !3
  %26 = load i32, ptr %15, align 4, !tbaa !10
  %27 = call i32 (ptr, ptr, ...) @fprintf(ptr noundef %25, ptr noundef @.str.1, i32 noundef %26) #9
  %28 = load ptr, ptr %5, align 8, !tbaa !3
  %29 = call i32 (ptr, ptr, ...) @fprintf(ptr noundef %28, ptr noundef @.str.2) #9
  store i32 0, ptr %11, align 4, !tbaa !10
  br label %30

30:                                               ; preds = %46, %4
  %31 = load i32, ptr %11, align 4, !tbaa !10
  %32 = load ptr, ptr %6, align 8, !tbaa !8
  %33 = call i32 @Abc_NtkCiNum(ptr noundef %32)
  %34 = icmp slt i32 %31, %33
  br i1 %34, label %35, label %39

35:                                               ; preds = %30
  %36 = load ptr, ptr %6, align 8, !tbaa !8
  %37 = load i32, ptr %11, align 4, !tbaa !10
  %38 = call ptr @Abc_NtkCi(ptr noundef %36, i32 noundef %37)
  store ptr %38, ptr %10, align 8, !tbaa !12
  br label %39

39:                                               ; preds = %35, %30
  %40 = phi i1 [ false, %30 ], [ true, %35 ]
  br i1 %40, label %41, label %49

41:                                               ; preds = %39
  %42 = load ptr, ptr %5, align 8, !tbaa !3
  %43 = load ptr, ptr %10, align 8, !tbaa !12
  %44 = call ptr @Abc_ObjName(ptr noundef %43)
  %45 = call i32 (ptr, ptr, ...) @fprintf(ptr noundef %42, ptr noundef @.str.3, ptr noundef %44) #9
  br label %46

46:                                               ; preds = %41
  %47 = load i32, ptr %11, align 4, !tbaa !10
  %48 = add nsw i32 %47, 1
  store i32 %48, ptr %11, align 4, !tbaa !10
  br label %30, !llvm.loop !66

49:                                               ; preds = %39
  %50 = load ptr, ptr %5, align 8, !tbaa !3
  %51 = call i32 (ptr, ptr, ...) @fprintf(ptr noundef %50, ptr noundef @.str.4) #9
  %52 = load ptr, ptr %5, align 8, !tbaa !3
  %53 = call i32 (ptr, ptr, ...) @fprintf(ptr noundef %52, ptr noundef @.str.5) #9
  store i32 0, ptr %11, align 4, !tbaa !10
  br label %54

54:                                               ; preds = %70, %49
  %55 = load i32, ptr %11, align 4, !tbaa !10
  %56 = load ptr, ptr %6, align 8, !tbaa !8
  %57 = call i32 @Abc_NtkCoNum(ptr noundef %56)
  %58 = icmp slt i32 %55, %57
  br i1 %58, label %59, label %63

59:                                               ; preds = %54
  %60 = load ptr, ptr %6, align 8, !tbaa !8
  %61 = load i32, ptr %11, align 4, !tbaa !10
  %62 = call ptr @Abc_NtkCo(ptr noundef %60, i32 noundef %61)
  store ptr %62, ptr %10, align 8, !tbaa !12
  br label %63

63:                                               ; preds = %59, %54
  %64 = phi i1 [ false, %54 ], [ true, %59 ]
  br i1 %64, label %65, label %73

65:                                               ; preds = %63
  %66 = load ptr, ptr %5, align 8, !tbaa !3
  %67 = load ptr, ptr %10, align 8, !tbaa !12
  %68 = call ptr @Abc_ObjName(ptr noundef %67)
  %69 = call i32 (ptr, ptr, ...) @fprintf(ptr noundef %66, ptr noundef @.str.3, ptr noundef %68) #9
  br label %70

70:                                               ; preds = %65
  %71 = load i32, ptr %11, align 4, !tbaa !10
  %72 = add nsw i32 %71, 1
  store i32 %72, ptr %11, align 4, !tbaa !10
  br label %54, !llvm.loop !67

73:                                               ; preds = %63
  %74 = load ptr, ptr %5, align 8, !tbaa !3
  %75 = call i32 (ptr, ptr, ...) @fprintf(ptr noundef %74, ptr noundef @.str.4) #9
  %76 = load ptr, ptr %5, align 8, !tbaa !3
  %77 = load i32, ptr %13, align 4, !tbaa !10
  %78 = call i32 (ptr, ptr, ...) @fprintf(ptr noundef %76, ptr noundef @.str.6, i32 noundef %77) #9
  store i32 0, ptr %12, align 4, !tbaa !10
  br label %79

79:                                               ; preds = %129, %73
  %80 = load i32, ptr %12, align 4, !tbaa !10
  %81 = load i32, ptr %13, align 4, !tbaa !10
  %82 = icmp slt i32 %80, %81
  br i1 %82, label %83, label %132

83:                                               ; preds = %79
  store i32 0, ptr %11, align 4, !tbaa !10
  br label %84

84:                                               ; preds = %99, %83
  %85 = load i32, ptr %11, align 4, !tbaa !10
  %86 = load i32, ptr %14, align 4, !tbaa !10
  %87 = icmp slt i32 %85, %86
  br i1 %87, label %88, label %102

88:                                               ; preds = %84
  %89 = load ptr, ptr %5, align 8, !tbaa !3
  %90 = load i32, ptr %12, align 4, !tbaa !10
  %91 = load i32, ptr %11, align 4, !tbaa !10
  %92 = ashr i32 %90, %91
  %93 = and i32 %92, 1
  %94 = load i32, ptr %11, align 4, !tbaa !10
  %95 = sext i32 %94 to i64
  %96 = getelementptr inbounds [1000 x i32], ptr %9, i64 0, i64 %95
  store i32 %93, ptr %96, align 4, !tbaa !10
  %97 = add nsw i32 48, %93
  %98 = call i32 (ptr, ptr, ...) @fprintf(ptr noundef %89, ptr noundef @.str.18, i32 noundef %97) #9
  br label %99

99:                                               ; preds = %88
  %100 = load i32, ptr %11, align 4, !tbaa !10
  %101 = add nsw i32 %100, 1
  store i32 %101, ptr %11, align 4, !tbaa !10
  br label %84, !llvm.loop !68

102:                                              ; preds = %84
  %103 = load ptr, ptr %5, align 8, !tbaa !3
  %104 = call i32 (ptr, ptr, ...) @fprintf(ptr noundef %103, ptr noundef @.str.19) #9
  store i32 0, ptr %11, align 4, !tbaa !10
  br label %105

105:                                              ; preds = %123, %102
  %106 = load i32, ptr %11, align 4, !tbaa !10
  %107 = load i32, ptr %15, align 4, !tbaa !10
  %108 = icmp slt i32 %106, %107
  br i1 %108, label %109, label %126

109:                                              ; preds = %105
  %110 = load ptr, ptr %5, align 8, !tbaa !3
  %111 = load ptr, ptr %7, align 8, !tbaa !56
  %112 = call ptr @Cudd_ReadOne(ptr noundef %111)
  %113 = load ptr, ptr %7, align 8, !tbaa !56
  %114 = load ptr, ptr %8, align 8, !tbaa !58
  %115 = load i32, ptr %11, align 4, !tbaa !10
  %116 = call ptr @Vec_PtrEntry(ptr noundef %114, i32 noundef %115)
  %117 = getelementptr inbounds [1000 x i32], ptr %9, i64 0, i64 0
  %118 = call ptr @Cudd_Eval(ptr noundef %113, ptr noundef %116, ptr noundef %117)
  %119 = icmp eq ptr %112, %118
  %120 = zext i1 %119 to i32
  %121 = add nsw i32 48, %120
  %122 = call i32 (ptr, ptr, ...) @fprintf(ptr noundef %110, ptr noundef @.str.18, i32 noundef %121) #9
  br label %123

123:                                              ; preds = %109
  %124 = load i32, ptr %11, align 4, !tbaa !10
  %125 = add nsw i32 %124, 1
  store i32 %125, ptr %11, align 4, !tbaa !10
  br label %105, !llvm.loop !69

126:                                              ; preds = %105
  %127 = load ptr, ptr %5, align 8, !tbaa !3
  %128 = call i32 (ptr, ptr, ...) @fprintf(ptr noundef %127, ptr noundef @.str.4) #9
  br label %129

129:                                              ; preds = %126
  %130 = load i32, ptr %12, align 4, !tbaa !10
  %131 = add nsw i32 %130, 1
  store i32 %131, ptr %12, align 4, !tbaa !10
  br label %79, !llvm.loop !70

132:                                              ; preds = %79
  %133 = load ptr, ptr %5, align 8, !tbaa !3
  %134 = call i32 (ptr, ptr, ...) @fprintf(ptr noundef %133, ptr noundef @.str.8) #9
  call void @llvm.lifetime.end.p0(i64 4, ptr %15) #9
  call void @llvm.lifetime.end.p0(i64 4, ptr %14) #9
  call void @llvm.lifetime.end.p0(i64 4, ptr %13) #9
  call void @llvm.lifetime.end.p0(i64 4, ptr %12) #9
  call void @llvm.lifetime.end.p0(i64 4, ptr %11) #9
  call void @llvm.lifetime.end.p0(i64 8, ptr %10) #9
  call void @llvm.lifetime.end.p0(i64 4000, ptr %9) #9
  ret i32 1
}