; Function Attrs: nounwind uwtable
define noundef i32 @Io_WriteMoPlaOneIntMinterms(ptr noundef captures(none) %0, ptr noundef readonly captures(none) %1, ptr noundef %2, ptr noundef readonly captures(none) %3) local_unnamed_addr #0 {
  %5 = alloca [1000 x i32], align 16
  call void @llvm.lifetime.start.p0(i64 4000, ptr nonnull %5) #11
  %6 = getelementptr i8, ptr %1, i64 56
  %.val59 = load ptr, ptr %6, align 8, !tbaa !38
  %7 = getelementptr i8, ptr %.val59, i64 4
  %.val59.val = load i32, ptr %7, align 4, !tbaa !24
  %8 = getelementptr i8, ptr %1, i64 64
  %.val55 = load ptr, ptr %8, align 8, !tbaa !3
  %9 = getelementptr i8, ptr %.val55, i64 4
  %.val55.val = load i32, ptr %9, align 4, !tbaa !24
  %.val55.val.fr = freeze i32 %.val55.val
  %10 = shl nuw i32 1, %.val59.val
  %11 = tail call i32 (ptr, ptr, ...) @fprintf(ptr noundef %0, ptr noundef nonnull @.str, i32 noundef %.val59.val) #11
  %12 = tail call i32 (ptr, ptr, ...) @fprintf(ptr noundef %0, ptr noundef nonnull @.str.1, i32 noundef %.val55.val.fr) #11
  %13 = tail call i64 @fwrite(ptr nonnull @.str.2, i64 4, i64 1, ptr %0)
  %.val5861 = load ptr, ptr %6, align 8, !tbaa !38
  %14 = getelementptr i8, ptr %.val5861, i64 4
  %.val58.val62 = load i32, ptr %14, align 4, !tbaa !24
  %15 = icmp sgt i32 %.val58.val62, 0
  br i1 %15, label %.lr.ph, label %.critedge

.lr.ph:                                           ; preds = %4, %.lr.ph
  %indvars.iv = phi i64 [ %indvars.iv.next, %.lr.ph ], [ 0, %4 ]
  %.val5864 = phi ptr [ %.val58, %.lr.ph ], [ %.val5861, %4 ]
  %16 = getelementptr i8, ptr %.val5864, i64 8
  %.val60.val = load ptr, ptr %16, align 8, !tbaa !26
  %17 = getelementptr inbounds nuw ptr, ptr %.val60.val, i64 %indvars.iv
  %18 = load ptr, ptr %17, align 8, !tbaa !27
  %19 = tail call ptr @Abc_ObjName(ptr noundef %18) #11
  %20 = tail call i32 (ptr, ptr, ...) @fprintf(ptr noundef %0, ptr noundef nonnull @.str.3, ptr noundef %19) #11
  %indvars.iv.next = add nuw nsw i64 %indvars.iv, 1
  %.val58 = load ptr, ptr %6, align 8, !tbaa !38
  %21 = getelementptr i8, ptr %.val58, i64 4
  %.val58.val = load i32, ptr %21, align 4, !tbaa !24
  %22 = sext i32 %.val58.val to i64
  %23 = icmp slt i64 %indvars.iv.next, %22
  br i1 %23, label %.lr.ph, label %.critedge, !llvm.loop !60

.critedge:                                        ; preds = %.lr.ph, %4
  %fputc = tail call i32 @fputc(i32 10, ptr %0)
  %24 = tail call i64 @fwrite(ptr nonnull @.str.5, i64 3, i64 1, ptr %0)
  %.val65 = load ptr, ptr %8, align 8, !tbaa !3
  %25 = getelementptr i8, ptr %.val65, i64 4
  %.val.val66 = load i32, ptr %25, align 4, !tbaa !24
  %26 = icmp sgt i32 %.val.val66, 0
  br i1 %26, label %.lr.ph69, label %.critedge2

.lr.ph69:                                         ; preds = %.critedge, %.lr.ph69
  %indvars.iv89 = phi i64 [ %indvars.iv.next90, %.lr.ph69 ], [ 0, %.critedge ]
  %.val68 = phi ptr [ %.val, %.lr.ph69 ], [ %.val65, %.critedge ]
  %27 = getelementptr i8, ptr %.val68, i64 8
  %.val57.val = load ptr, ptr %27, align 8, !tbaa !26
  %28 = getelementptr inbounds nuw ptr, ptr %.val57.val, i64 %indvars.iv89
  %29 = load ptr, ptr %28, align 8, !tbaa !27
  %30 = tail call ptr @Abc_ObjName(ptr noundef %29) #11
  %31 = tail call i32 (ptr, ptr, ...) @fprintf(ptr noundef %0, ptr noundef nonnull @.str.3, ptr noundef %30) #11
  %indvars.iv.next90 = add nuw nsw i64 %indvars.iv89, 1
  %.val = load ptr, ptr %8, align 8, !tbaa !3
  %32 = getelementptr i8, ptr %.val, i64 4
  %.val.val = load i32, ptr %32, align 4, !tbaa !24
  %33 = sext i32 %.val.val to i64
  %34 = icmp slt i64 %indvars.iv.next90, %33
  br i1 %34, label %.lr.ph69, label %.critedge2, !llvm.loop !61

.critedge2:                                       ; preds = %.lr.ph69, %.critedge
  %fputc50 = tail call i32 @fputc(i32 10, ptr %0)
  %35 = tail call i32 (ptr, ptr, ...) @fprintf(ptr noundef %0, ptr noundef nonnull @.str.6, i32 noundef %10) #11
  %.not = icmp eq i32 %.val59.val, 31
  br i1 %.not, label %._crit_edge77, label %.preheader.lr.ph

.preheader.lr.ph:                                 ; preds = %.critedge2
  %36 = icmp sgt i32 %.val59.val, 0
  %37 = icmp sgt i32 %.val55.val.fr, 0
  %38 = getelementptr i8, ptr %3, i64 8
  %smax108 = tail call i32 @llvm.smax.i32(i32 %10, i32 1)
  br i1 %37, label %.preheader.us.preheader, label %.preheader.lr.ph.split

.preheader.us.preheader:                          ; preds = %.preheader.lr.ph
  %wide.trip.count101 = zext nneg i32 %.val59.val to i64
  %wide.trip.count106 = zext nneg i32 %.val55.val.fr to i64
  br label %.preheader.us

.preheader.us:                                    ; preds = %.preheader.us.preheader, %._crit_edge75.us
  %.04976.us = phi i32 [ %51, %._crit_edge75.us ], [ 0, %.preheader.us.preheader ]
  br i1 %36, label %.lr.ph71.us, label %.lr.ph74.us

.lr.ph74.us:                                      ; preds = %.lr.ph71.us, %.preheader.us
  %fputc51.us = call i32 @fputc(i32 32, ptr %0)
  br label %39

39:                                               ; preds = %.lr.ph74.us, %39
  %indvars.iv103 = phi i64 [ 0, %.lr.ph74.us ], [ %indvars.iv.next104, %39 ]
  %40 = call ptr @Cudd_ReadOne(ptr noundef %2) #11
  %.val56.us = load ptr, ptr %38, align 8, !tbaa !26
  %41 = getelementptr inbounds nuw ptr, ptr %.val56.us, i64 %indvars.iv103
  %42 = load ptr, ptr %41, align 8, !tbaa !27
  %43 = call ptr @Cudd_Eval(ptr noundef %2, ptr noundef %42, ptr noundef nonnull %5) #11
  %44 = icmp eq ptr %40, %43
  %45 = select i1 %44, i32 49, i32 48
  %fputc53.us = call i32 @fputc(i32 %45, ptr %0)
  %indvars.iv.next104 = add nuw nsw i64 %indvars.iv103, 1
  %exitcond107.not = icmp eq i64 %indvars.iv.next104, %wide.trip.count106
  br i1 %exitcond107.not, label %._crit_edge75.us, label %39, !llvm.loop !62

.lr.ph71.us:                                      ; preds = %.preheader.us, %.lr.ph71.us
  %indvars.iv98 = phi i64 [ %indvars.iv.next99, %.lr.ph71.us ], [ 0, %.preheader.us ]
  %46 = trunc nuw nsw i64 %indvars.iv98 to i32
  %47 = lshr i32 %.04976.us, %46
  %48 = and i32 %47, 1
  %49 = getelementptr inbounds nuw [1000 x i32], ptr %5, i64 0, i64 %indvars.iv98
  store i32 %48, ptr %49, align 4, !tbaa !33
  %50 = or disjoint i32 %48, 48
  %fputc54.us = call i32 @fputc(i32 %50, ptr %0)
  %indvars.iv.next99 = add nuw nsw i64 %indvars.iv98, 1
  %exitcond102.not = icmp eq i64 %indvars.iv.next99, %wide.trip.count101
  br i1 %exitcond102.not, label %.lr.ph74.us, label %.lr.ph71.us, !llvm.loop !63

._crit_edge75.us:                                 ; preds = %39
  %fputc52.us = call i32 @fputc(i32 10, ptr %0)
  %51 = add nuw nsw i32 %.04976.us, 1
  %exitcond109.not = icmp eq i32 %51, %smax108
  br i1 %exitcond109.not, label %._crit_edge77, label %.preheader.us, !llvm.loop !64

.preheader.lr.ph.split:                           ; preds = %.preheader.lr.ph
  br i1 %36, label %.preheader.us78.preheader, label %.preheader

.preheader.us78.preheader:                        ; preds = %.preheader.lr.ph.split
  %wide.trip.count = zext nneg i32 %.val59.val to i64
  br label %.preheader.us78

.preheader.us78:                                  ; preds = %.preheader.us78.preheader, %._crit_edge.us85
  %.04976.us79 = phi i32 [ %58, %._crit_edge.us85 ], [ 0, %.preheader.us78.preheader ]
  br label %52

52:                                               ; preds = %.preheader.us78, %52
  %indvars.iv92 = phi i64 [ 0, %.preheader.us78 ], [ %indvars.iv.next93, %52 ]
  %53 = trunc nuw nsw i64 %indvars.iv92 to i32
  %54 = lshr i32 %.04976.us79, %53
  %55 = and i32 %54, 1
  %56 = getelementptr inbounds nuw [1000 x i32], ptr %5, i64 0, i64 %indvars.iv92
  store i32 %55, ptr %56, align 4, !tbaa !33
  %57 = or disjoint i32 %55, 48
  %fputc54.us83 = tail call i32 @fputc(i32 %57, ptr %0)
  %indvars.iv.next93 = add nuw nsw i64 %indvars.iv92, 1
  %exitcond95.not = icmp eq i64 %indvars.iv.next93, %wide.trip.count
  br i1 %exitcond95.not, label %._crit_edge.us85, label %52, !llvm.loop !63

._crit_edge.us85:                                 ; preds = %52
  %fputc51.us80 = tail call i32 @fputc(i32 32, ptr %0)
  %fputc52.us81 = tail call i32 @fputc(i32 10, ptr %0)
  %58 = add nuw nsw i32 %.04976.us79, 1
  %exitcond97.not = icmp eq i32 %58, %smax108
  br i1 %exitcond97.not, label %._crit_edge77, label %.preheader.us78, !llvm.loop !64

.preheader:                                       ; preds = %.preheader.lr.ph.split, %.preheader
  %.04976 = phi i32 [ %59, %.preheader ], [ 0, %.preheader.lr.ph.split ]
  %fputc51 = tail call i32 @fputc(i32 32, ptr %0)
  %fputc52 = tail call i32 @fputc(i32 10, ptr %0)
  %59 = add nuw nsw i32 %.04976, 1
  %exitcond.not = icmp eq i32 %59, %smax108
  br i1 %exitcond.not, label %._crit_edge77, label %.preheader, !llvm.loop !64

._crit_edge77:                                    ; preds = %.preheader, %._crit_edge.us85, %._crit_edge75.us, %.critedge2
  %60 = call i64 @fwrite(ptr nonnull @.str.8, i64 3, i64 1, ptr %0)
  call void @llvm.lifetime.end.p0(i64 4000, ptr nonnull %5) #11
  ret i32 1
}